(iPyCommon.modules.Simulator.ysPhysConfig
ModelConfig
p1
(dp2
S'defaultContactBounce'
p3
F0.10000000000000001
sS'defaultJointHiStop'
p4
Finf
sS'defaultBoneRatio'
p5
F0.90000000000000002
sS'defaultKp'
p6
I100
sS'defaultContactMode'
p7
I4
sS'defaultContactSoftCFM'
p8
F0
sS'defaultContactMu'
p9
Finf
sS'defaultContactSoftERP'
p10
F0
sS'nodes'
p11
(dp12
S'Spine1'
p13
(iPyCommon.modules.Simulator.ysPhysConfig
Node
p14
(dp15
S'contactMu'
p16
Finf
sS'jointHiStop'
p17
Finf
sS'density'
p18
F1000
sS'width'
p19
NsS'contactSoftCFM'
p20
F0
sS'geom'
p21
S'MyBox'
p22
sS'jointType'
p23
S'B'
sS'geomTs'
p24
(lp25
sS'boneRatio'
p26
F0.90000000000000002
sS'contactSoftERP'
p27
F0
sS'jointLoStop'
p28
F-inf
sS'Kd'
p29
I5
sS'contactBounce'
p30
F0.10000000000000001
sS'Kp'
p31
I100
sS'offset'
p32
(I0
I0
F0.10000000000000001
tp33
sS'geomMaterial'
p34
(lp35
sS'jointAxes'
p36
(lp37
sS'name'
p38
g13
sS'geoms'
p39
(lp40
sS'length'
p41
F0.20000000000000001
sS'mass'
p42
F3
sS'contactMode'
p43
I4
sbsS'RightHand_Effector'
p44
(iPyCommon.modules.Simulator.ysPhysConfig
Node
p45
(dp46
g16
Finf
sg17
Finf
sg18
F1000
sg19
Nsg20
F0
sg21
g22
sg23
S'B'
sg24
(lp47
sg26
F0.90000000000000002
sg27
F0
sg28
F-inf
sg29
I5
sg30
F0.10000000000000001
sg31
I100
sg32
(I0
I0
I0
tp48
sg34
(lp49
sg36
g37
sg38
g44
sg39
(lp50
sg41
Nsg42
F0
sg43
I4
sbsS'LeftHand'
p51
(iPyCommon.modules.Simulator.ysPhysConfig
Node
p52
(dp53
g16
Finf
sg17
Finf
sg18
F1000
sg19
Nsg20
F0
sg21
g22
sg23
S'B'
sg24
(lp54
sg26
F0.90000000000000002
sg27
F0
sg28
F-inf
sg29
I5
sg30
F0.10000000000000001
sg31
I100
sg32
g48
sg34
(lp55
sg36
g37
sg38
g51
sg39
(lp56
sg41
Nsg42
F0
sg43
I4
sbsS'Head'
p57
(iPyCommon.modules.Simulator.ysPhysConfig
Node
p58
(dp59
g16
Finf
sg17
Finf
sg18
F1000
sg19
Nsg20
F0
sg21
g22
sg23
S'B'
sg24
(lp60
sg26
F0.90000000000000002
sg27
F0
sg28
F-inf
sg29
I5
sg30
F0.10000000000000001
sg31
I100
sg32
g48
sg34
(lp61
sg36
g37
sg38
g57
sg39
(lp62
sg41
Nsg42
F0
sg43
I4
sbsS'RightHand'
p63
(iPyCommon.modules.Simulator.ysPhysConfig
Node
p64
(dp65
g16
Finf
sg17
Finf
sg18
F1000
sg19
Nsg20
F0
sg21
g22
sg23
S'B'
sg24
(lp66
sg26
F0.90000000000000002
sg27
F0
sg28
F-inf
sg29
I5
sg30
F0.10000000000000001
sg31
I100
sg32
g48
sg34
(lp67
sg36
g37
sg38
g63
sg39
(lp68
sg41
Nsg42
F0
sg43
I4
sbsS'Head_Effector'
p69
(iPyCommon.modules.Simulator.ysPhysConfig
Node
p70
(dp71
g16
Finf
sg17
Finf
sg18
F1000
sg19
Nsg20
F0
sg21
g22
sg23
S'B'
sg24
(lp72
sg26
F0.90000000000000002
sg27
F0
sg28
F-inf
sg29
I5
sg30
F0.10000000000000001
sg31
I100
sg32
g48
sg34
(lp73
sg36
g37
sg38
g69
sg39
(lp74
sg41
Nsg42
F0
sg43
I4
sbsS'LeftArm'
p75
(iPyCommon.modules.Simulator.ysPhysConfig
Node
p76
(dp77
g16
Finf
sg17
Finf
sg18
F1000
sg19
Nsg20
F0
sg21
g22
sg23
S'B'
sg24
(lp78
sg26
F0.90000000000000002
sg27
F0
sg28
F-inf
sg29
I5
sg30
F0.10000000000000001
sg31
I100
sg32
g48
sg34
(lp79
sg36
g37
sg38
g75
sg39
(lp80
sg41
Nsg42
F2
sg43
I4
sbsS'LeftToes'
p81
(iPyCommon.modules.Simulator.ysPhysConfig
Node
p82
(dp83
g16
Finf
sg17
Finf
sg18
F1000
sg19
Nsg20
F0
sg21
g22
sg23
S'B'
sg24
(lp84
sg26
F0.90000000000000002
sg27
F0
sg28
F-inf
sg29
I5
sg30
F0.10000000000000001
sg31
I100
sg32
g48
sg34
(lp85
sg36
g37
sg38
g81
sg39
(lp86
sg41
Nsg42
F0
sg43
I4
sbsS'LeftLeg'
p87
(iPyCommon.modules.Simulator.ysPhysConfig
Node
p88
(dp89
g16
Finf
sg17
Finf
sg18
F1000
sg19
Nsg20
F0
sg21
g22
sg23
S'B'
sg24
(lp90
sg26
F0.90000000000000002
sg27
F0
sg28
F-inf
sg29
I5
sg30
F0.10000000000000001
sg31
I100
sg32
g48
sg34
(lp91
sg36
g37
sg38
g87
sg39
(lp92
sg41
Nsg42
F5
sg43
I4
sbsS'RightToes_Effector'
p93
(iPyCommon.modules.Simulator.ysPhysConfig
Node
p94
(dp95
g16
Finf
sg17
Finf
sg18
F1000
sg19
Nsg20
F0
sg21
g22
sg23
S'B'
sg24
(lp96
sg26
F0.90000000000000002
sg27
F0
sg28
F-inf
sg29
I5
sg30
F0.10000000000000001
sg31
I100
sg32
g48
sg34
(lp97
sg36
g37
sg38
g93
sg39
(lp98
sg41
Nsg42
F0
sg43
I4
sbsS'RightForeArm'
p99
(iPyCommon.modules.Simulator.ysPhysConfig
Node
p100
(dp101
g16
Finf
sg17
Finf
sg18
F1000
sg19
Nsg20
F0
sg21
g22
sg23
S'B'
sg24
(lp102
sg26
F0.90000000000000002
sg27
F0
sg28
F-inf
sg29
I5
sg30
F0.10000000000000001
sg31
I100
sg32
g48
sg34
(lp103
sg36
g37
sg38
g99
sg39
(lp104
sg41
Nsg42
F1
sg43
I4
sbsS'Spine'
p105
(iPyCommon.modules.Simulator.ysPhysConfig
Node
p106
(dp107
g16
Finf
sg17
Finf
sg18
F1000
sg19
F0.22
sg20
F0
sg21
g22
sg23
S'B'
sg24
(lp108
sg26
F0.90000000000000002
sg27
F0
sg28
F-inf
sg29
I5
sg30
F0.10000000000000001
sg31
I100
sg32
g48
sg34
(lp109
sg36
g37
sg38
g105
sg39
(lp110
sg41
Nsg42
F8
sg43
I4
sbsS'LeftUpLeg'
p111
(iPyCommon.modules.Simulator.ysPhysConfig
Node
p112
(dp113
g16
Finf
sg17
Finf
sg18
F1000
sg19
Nsg20
F0
sg21
g22
sg23
S'B'
sg24
(lp114
sg26
F0.90000000000000002
sg27
F0
sg28
F-inf
sg29
I5
sg30
F0.10000000000000001
sg31
I100
sg32
g48
sg34
(lp115
sg36
g37
sg38
g111
sg39
(lp116
sg41
Nsg42
F5
sg43
I4
sbsS'LeftFoot'
p117
(iPyCommon.modules.Simulator.ysPhysConfig
Node
p118
(dp119
g16
Finf
sg17
Finf
sg18
F1000
sg19
F0.10000000000000001
sg20
F0
sg21
g22
sg23
S'B'
sg24
(lp120
sg26
F0.90000000000000002
sg27
F0
sg28
F-inf
sg29
I5
sg30
F0.10000000000000001
sg31
I100
sg32
g48
sg34
(lp121
sg36
g37
sg38
g117
sg39
(lp122
sg41
F0.25
sg42
F2
sg43
I4
sbsS'LeftToes_Effector'
p123
(iPyCommon.modules.Simulator.ysPhysConfig
Node
p124
(dp125
g16
Finf
sg17
Finf
sg18
F1000
sg19
Nsg20
F0
sg21
g22
sg23
S'B'
sg24
(lp126
sg26
F0.90000000000000002
sg27
F0
sg28
F-inf
sg29
I5
sg30
F0.10000000000000001
sg31
I100
sg32
g48
sg34
(lp127
sg36
g37
sg38
g123
sg39
(lp128
sg41
Nsg42
F0
sg43
I4
sbsS'LeftForeArm'
p129
(iPyCommon.modules.Simulator.ysPhysConfig
Node
p130
(dp131
g16
Finf
sg17
Finf
sg18
F1000
sg19
Nsg20
F0
sg21
g22
sg23
S'B'
sg24
(lp132
sg26
F0.90000000000000002
sg27
F0
sg28
F-inf
sg29
I5
sg30
F0.10000000000000001
sg31
I100
sg32
g48
sg34
(lp133
sg36
g37
sg38
g129
sg39
(lp134
sg41
Nsg42
F1
sg43
I4
sbsS'Hips'
p135
(iPyCommon.modules.Simulator.ysPhysConfig
Node
p136
(dp137
g16
Finf
sg17
Finf
sg18
F1000
sg19
F0.25
sg20
F0
sg21
g22
sg23
S'B'
sg24
(lp138
sg26
F0.90000000000000002
sg27
F0
sg28
F-inf
sg29
I5
sg30
F0.10000000000000001
sg31
I100
sg32
g48
sg34
(lp139
sg36
g37
sg38
g135
sg39
(lp140
sg41
F0.20000000000000001
sg42
F6
sg43
I4
sbsS'RightFoot'
p141
(iPyCommon.modules.Simulator.ysPhysConfig
Node
p142
(dp143
g16
Finf
sg17
Finf
sg18
F1000
sg19
F0.10000000000000001
sg20
F0
sg21
g22
sg23
S'B'
sg24
(lp144
sg26
F0.90000000000000002
sg27
F0
sg28
F-inf
sg29
I5
sg30
F0.10000000000000001
sg31
I100
sg32
g48
sg34
(lp145
sg36
g37
sg38
g141
sg39
(lp146
sg41
F0.25
sg42
F2
sg43
I4
sbsS'RightArm'
p147
(iPyCommon.modules.Simulator.ysPhysConfig
Node
p148
(dp149
g16
Finf
sg17
Finf
sg18
F1000
sg19
Nsg20
F0
sg21
g22
sg23
S'B'
sg24
(lp150
sg26
F0.90000000000000002
sg27
F0
sg28
F-inf
sg29
I5
sg30
F0.10000000000000001
sg31
I100
sg32
g48
sg34
(lp151
sg36
g37
sg38
g147
sg39
(lp152
sg41
Nsg42
F2
sg43
I4
sbsS'RightUpLeg'
p153
(iPyCommon.modules.Simulator.ysPhysConfig
Node
p154
(dp155
g16
Finf
sg17
Finf
sg18
F1000
sg19
Nsg20
F0
sg21
g22
sg23
S'B'
sg24
(lp156
sg26
F0.90000000000000002
sg27
F0
sg28
F-inf
sg29
I5
sg30
F0.10000000000000001
sg31
I100
sg32
g48
sg34
(lp157
sg36
g37
sg38
g153
sg39
(lp158
sg41
Nsg42
F5
sg43
I4
sbsS'RightToes'
p159
(iPyCommon.modules.Simulator.ysPhysConfig
Node
p160
(dp161
g16
Finf
sg17
Finf
sg18
F1000
sg19
Nsg20
F0
sg21
g22
sg23
S'B'
sg24
(lp162
sg26
F0.90000000000000002
sg27
F0
sg28
F-inf
sg29
I5
sg30
F0.10000000000000001
sg31
I100
sg32
g48
sg34
(lp163
sg36
g37
sg38
g159
sg39
(lp164
sg41
Nsg42
F0
sg43
I4
sbsS'LeftShoulder1'
p165
(iPyCommon.modules.Simulator.ysPhysConfig
Node
p166
(dp167
g16
Finf
sg17
Finf
sg18
F1000
sg19
Nsg20
F0
sg21
g22
sg23
S'B'
sg24
(lp168
sg26
F0.90000000000000002
sg27
F0
sg28
F-inf
sg29
I5
sg30
F0.10000000000000001
sg31
I100
sg32
g48
sg34
(lp169
sg36
g37
sg38
g165
sg39
(lp170
sg41
Nsg42
F0
sg43
I4
sbsS'RightLeg'
p171
(iPyCommon.modules.Simulator.ysPhysConfig
Node
p172
(dp173
g16
Finf
sg17
Finf
sg18
F1000
sg19
Nsg20
F0
sg21
g22
sg23
S'B'
sg24
(lp174
sg26
F0.90000000000000002
sg27
F0
sg28
F-inf
sg29
I5
sg30
F0.10000000000000001
sg31
I100
sg32
g48
sg34
(lp175
sg36
g37
sg38
g171
sg39
(lp176
sg41
Nsg42
F5
sg43
I4
sbsS'LeftHand_Effector'
p177
(iPyCommon.modules.Simulator.ysPhysConfig
Node
p178
(dp179
g16
Finf
sg17
Finf
sg18
F1000
sg19
Nsg20
F0
sg21
g22
sg23
S'B'
sg24
(lp180
sg26
F0.90000000000000002
sg27
F0
sg28
F-inf
sg29
I5
sg30
F0.10000000000000001
sg31
I100
sg32
g48
sg34
(lp181
sg36
g37
sg38
g177
sg39
(lp182
sg41
Nsg42
F0
sg43
I4
sbsS'RightShoulder'
p183
(iPyCommon.modules.Simulator.ysPhysConfig
Node
p184
(dp185
g16
Finf
sg17
Finf
sg18
F1000
sg19
Nsg20
F0
sg21
g22
sg23
S'B'
sg24
(lp186
sg26
F0.90000000000000002
sg27
F0
sg28
F-inf
sg29
I5
sg30
F0.10000000000000001
sg31
I100
sg32
g48
sg34
(lp187
sg36
g37
sg38
g183
sg39
(lp188
sg41
Nsg42
F0
sg43
I4
sbssS'defaultDensity'
p189
F1000
sS'defaultJointLoStop'
p190
F-inf
sS'defaultJointAxes'
p191
g37
sS'defaultKd'
p192
I5
sb.