(dp1
S'push z'
p2
F0
sS'des force begin'
p3
F148
sS'push x'
p4
F500
sS'push y'
p5
F0
sS'steps per frame'
p6
F40
sS'PD gain'
p7
F236.5
sS'Joint Damping'
p8
F35
sS'des force dur'
p9
F20
sS'normal des force max'
p10
F80
sS'force weight'
p11
F0
sS'tau weight'
p12
F0
sS'push time'
p13
F0.10000000000000001
sS'tracking weight'
p14
F0
sS'normal des force min'
p15
F80
sS'1/simul speed'
p16
F1
s.