(iSimulator.ysPhysConfig
ModelConfig
p1
(dp2
S'defaultContactBounce'
p3
F0.10000000000000001
sS'defaultJointHiStop'
p4
Finf
sS'defaultBoneRatio'
p5
F0.90000000000000002
sS'defaultKp'
p6
I100
sS'defaultContactMode'
p7
I4
sS'defaultContactSoftCFM'
p8
F0
sS'defaultContactMu'
p9
Finf
sS'defaultContactSoftERP'
p10
F0
sS'nodes'
p11
(dp12
S'Spine1'
p13
(iSimulator.ysPhysConfig
Node
p14
(dp15
S'geomTs'
p16
(lp17
sS'jointAxes'
p18
(lp19
sS'jointLoStop'
p20
F-inf
sS'name'
p21
g13
sS'jointHiStop'
p22
Finf
sS'density'
p23
F1000
sS'Kd'
p24
I5
sS'contactBounce'
p25
F0.10000000000000001
sS'contactMu'
p26
Finf
sS'width'
p27
NsS'length'
p28
F0.20000000000000001
sS'Kp'
p29
I100
sS'geom'
p30
S'MyBox'
p31
sS'contactMode'
p32
I4
sS'offset'
p33
(I0
I0
F0.10000000000000001
tp34
sS'mass'
p35
F3
sS'geomMaterial'
p36
(lp37
sS'contactSoftCFM'
p38
F0
sS'geoms'
p39
(lp40
sS'boneRatio'
p41
F0.90000000000000002
sS'contactSoftERP'
p42
F0
sbsS'RightHand_Effector'
p43
(iSimulator.ysPhysConfig
Node
p44
(dp45
g16
(lp46
sg18
g19
sg20
F-inf
sg21
g43
sg22
Finf
sg23
F1000
sg24
I5
sg25
F0.10000000000000001
sg26
Finf
sg27
Nsg28
Nsg29
I100
sg30
g31
sg32
I4
sg33
(I0
I0
I0
tp47
sg35
F0
sg36
(lp48
sg38
F0
sg39
(lp49
sg41
F0.90000000000000002
sg42
F0
sbsS'LeftHand'
p50
(iSimulator.ysPhysConfig
Node
p51
(dp52
g16
(lp53
sg18
g19
sg20
F-inf
sg21
g50
sg22
Finf
sg23
F1000
sg24
I5
sg25
F0.10000000000000001
sg26
Finf
sg27
Nsg28
Nsg29
I100
sg30
g31
sg32
I4
sg33
g47
sg35
F0
sg36
(lp54
sg38
F0
sg39
(lp55
sg41
F0.90000000000000002
sg42
F0
sbsS'Head'
p56
(iSimulator.ysPhysConfig
Node
p57
(dp58
g16
(lp59
sg18
g19
sg20
F-inf
sg21
g56
sg22
Finf
sg23
F1000
sg24
I5
sg25
F0.10000000000000001
sg26
Finf
sg27
Nsg28
Nsg29
I100
sg30
g31
sg32
I4
sg33
g47
sg35
F0
sg36
(lp60
sg38
F0
sg39
(lp61
sg41
F0.90000000000000002
sg42
F0
sbsS'RightHand'
p62
(iSimulator.ysPhysConfig
Node
p63
(dp64
g16
(lp65
sg18
g19
sg20
F-inf
sg21
g62
sg22
Finf
sg23
F1000
sg24
I5
sg25
F0.10000000000000001
sg26
Finf
sg27
Nsg28
Nsg29
I100
sg30
g31
sg32
I4
sg33
g47
sg35
F0
sg36
(lp66
sg38
F0
sg39
(lp67
sg41
F0.90000000000000002
sg42
F0
sbsS'Head_Effector'
p68
(iSimulator.ysPhysConfig
Node
p69
(dp70
g16
(lp71
sg18
g19
sg20
F-inf
sg21
g68
sg22
Finf
sg23
F1000
sg24
I5
sg25
F0.10000000000000001
sg26
Finf
sg27
Nsg28
Nsg29
I100
sg30
g31
sg32
I4
sg33
g47
sg35
F0
sg36
(lp72
sg38
F0
sg39
(lp73
sg41
F0.90000000000000002
sg42
F0
sbsS'LeftArm'
p74
(iSimulator.ysPhysConfig
Node
p75
(dp76
g16
(lp77
sg18
g19
sg20
F-inf
sg21
g74
sg22
Finf
sg23
F1000
sg24
I5
sg25
F0.10000000000000001
sg26
Finf
sg27
Nsg28
Nsg29
I100
sg30
g31
sg32
I4
sg33
g47
sg35
F2
sg36
(lp78
sg38
F0
sg39
(lp79
sg41
F0.90000000000000002
sg42
F0
sbsS'LeftToes'
p80
(iSimulator.ysPhysConfig
Node
p81
(dp82
g16
(lp83
sg18
g19
sg20
F-inf
sg21
g80
sg22
Finf
sg23
F1000
sg24
I5
sg25
F0.10000000000000001
sg26
Finf
sg27
Nsg28
Nsg29
I100
sg30
g31
sg32
I4
sg33
g47
sg35
F0
sg36
(lp84
sg38
F0
sg39
(lp85
sg41
F0.90000000000000002
sg42
F0
sbsS'LeftLeg'
p86
(iSimulator.ysPhysConfig
Node
p87
(dp88
g16
(lp89
sg18
g19
sg20
F-inf
sg21
g86
sg22
Finf
sg23
F1000
sg24
I5
sg25
F0.10000000000000001
sg26
Finf
sg27
Nsg28
Nsg29
I100
sg30
g31
sg32
I4
sg33
g47
sg35
F5
sg36
(lp90
sg38
F0
sg39
(lp91
sg41
F0.90000000000000002
sg42
F0
sbsS'RightToes_Effector'
p92
(iSimulator.ysPhysConfig
Node
p93
(dp94
g16
(lp95
sg18
g19
sg20
F-inf
sg21
g92
sg22
Finf
sg23
F1000
sg24
I5
sg25
F0.10000000000000001
sg26
Finf
sg27
Nsg28
Nsg29
I100
sg30
g31
sg32
I4
sg33
g47
sg35
F0
sg36
(lp96
sg38
F0
sg39
(lp97
sg41
F0.90000000000000002
sg42
F0
sbsS'RightForeArm'
p98
(iSimulator.ysPhysConfig
Node
p99
(dp100
g16
(lp101
sg18
g19
sg20
F-inf
sg21
g98
sg22
Finf
sg23
F1000
sg24
I5
sg25
F0.10000000000000001
sg26
Finf
sg27
Nsg28
Nsg29
I100
sg30
g31
sg32
I4
sg33
g47
sg35
F1
sg36
(lp102
sg38
F0
sg39
(lp103
sg41
F0.90000000000000002
sg42
F0
sbsS'Spine'
p104
(iSimulator.ysPhysConfig
Node
p105
(dp106
g16
(lp107
sg18
g19
sg20
F-inf
sg21
g104
sg22
Finf
sg23
F1000
sg24
I5
sg25
F0.10000000000000001
sg26
Finf
sg27
F0.22
sg28
Nsg29
I100
sg30
g31
sg32
I4
sg33
g47
sg35
F8
sg36
(lp108
sg38
F0
sg39
(lp109
sg41
F0.90000000000000002
sg42
F0
sbsS'LeftUpLeg'
p110
(iSimulator.ysPhysConfig
Node
p111
(dp112
g16
(lp113
sg18
g19
sg20
F-inf
sg21
g110
sg22
Finf
sg23
F1000
sg24
I5
sg25
F0.10000000000000001
sg26
Finf
sg27
Nsg28
Nsg29
I100
sg30
g31
sg32
I4
sg33
g47
sg35
F5
sg36
(lp114
sg38
F0
sg39
(lp115
sg41
F0.90000000000000002
sg42
F0
sbsS'LeftFoot'
p116
(iSimulator.ysPhysConfig
Node
p117
(dp118
g16
(lp119
sg18
g19
sg20
F-inf
sg21
g116
sg22
Finf
sg23
F1000
sg24
I5
sg25
F0.10000000000000001
sg26
Finf
sg27
F0.10000000000000001
sg28
F0.25
sg29
I100
sg30
S'MyFoot1'
p120
sg32
I4
sg33
g47
sg35
F2
sg36
(lp121
sg38
F0
sg39
(lp122
sg41
F0.90000000000000002
sg42
F0
sbsS'LeftToes_Effector'
p123
(iSimulator.ysPhysConfig
Node
p124
(dp125
g16
(lp126
sg18
g19
sg20
F-inf
sg21
g123
sg22
Finf
sg23
F1000
sg24
I5
sg25
F0.10000000000000001
sg26
Finf
sg27
Nsg28
Nsg29
I100
sg30
g31
sg32
I4
sg33
g47
sg35
F0
sg36
(lp127
sg38
F0
sg39
(lp128
sg41
F0.90000000000000002
sg42
F0
sbsS'LeftForeArm'
p129
(iSimulator.ysPhysConfig
Node
p130
(dp131
g16
(lp132
sg18
g19
sg20
F-inf
sg21
g129
sg22
Finf
sg23
F1000
sg24
I5
sg25
F0.10000000000000001
sg26
Finf
sg27
Nsg28
Nsg29
I100
sg30
g31
sg32
I4
sg33
g47
sg35
F1
sg36
(lp133
sg38
F0
sg39
(lp134
sg41
F0.90000000000000002
sg42
F0
sbsS'Hips'
p135
(iSimulator.ysPhysConfig
Node
p136
(dp137
g16
(lp138
sg18
g19
sg20
F-inf
sg21
g135
sg22
Finf
sg23
F1000
sg24
I5
sg25
F0.10000000000000001
sg26
Finf
sg27
F0.25
sg28
F0.20000000000000001
sg29
I100
sg30
g31
sg32
I4
sg33
g47
sg35
F6
sg36
(lp139
sg38
F0
sg39
(lp140
sg41
F0.90000000000000002
sg42
F0
sbsS'RightFoot'
p141
(iSimulator.ysPhysConfig
Node
p142
(dp143
g16
(lp144
sg18
g19
sg20
F-inf
sg21
g141
sg22
Finf
sg23
F1000
sg24
I5
sg25
F0.10000000000000001
sg26
Finf
sg27
F0.10000000000000001
sg28
F0.25
sg29
I100
sg30
g120
sg32
I4
sg33
g47
sg35
F2
sg36
(lp145
sg38
F0
sg39
(lp146
sg41
F0.90000000000000002
sg42
F0
sbsS'RightArm'
p147
(iSimulator.ysPhysConfig
Node
p148
(dp149
g16
(lp150
sg18
g19
sg20
F-inf
sg21
g147
sg22
Finf
sg23
F1000
sg24
I5
sg25
F0.10000000000000001
sg26
Finf
sg27
Nsg28
Nsg29
I100
sg30
g31
sg32
I4
sg33
g47
sg35
F2
sg36
(lp151
sg38
F0
sg39
(lp152
sg41
F0.90000000000000002
sg42
F0
sbsS'RightUpLeg'
p153
(iSimulator.ysPhysConfig
Node
p154
(dp155
g16
(lp156
sg18
g19
sg20
F-inf
sg21
g153
sg22
Finf
sg23
F1000
sg24
I5
sg25
F0.10000000000000001
sg26
Finf
sg27
Nsg28
Nsg29
I100
sg30
g31
sg32
I4
sg33
g47
sg35
F5
sg36
(lp157
sg38
F0
sg39
(lp158
sg41
F0.90000000000000002
sg42
F0
sbsS'RightToes'
p159
(iSimulator.ysPhysConfig
Node
p160
(dp161
g16
(lp162
sg18
g19
sg20
F-inf
sg21
g159
sg22
Finf
sg23
F1000
sg24
I5
sg25
F0.10000000000000001
sg26
Finf
sg27
Nsg28
Nsg29
I100
sg30
g31
sg32
I4
sg33
g47
sg35
F0
sg36
(lp163
sg38
F0
sg39
(lp164
sg41
F0.90000000000000002
sg42
F0
sbsS'LeftShoulder1'
p165
(iSimulator.ysPhysConfig
Node
p166
(dp167
g16
(lp168
sg18
g19
sg20
F-inf
sg21
g165
sg22
Finf
sg23
F1000
sg24
I5
sg25
F0.10000000000000001
sg26
Finf
sg27
Nsg28
Nsg29
I100
sg30
g31
sg32
I4
sg33
g47
sg35
F0
sg36
(lp169
sg38
F0
sg39
(lp170
sg41
F0.90000000000000002
sg42
F0
sbsS'RightLeg'
p171
(iSimulator.ysPhysConfig
Node
p172
(dp173
g16
(lp174
sg18
g19
sg20
F-inf
sg21
g171
sg22
Finf
sg23
F1000
sg24
I5
sg25
F0.10000000000000001
sg26
Finf
sg27
Nsg28
Nsg29
I100
sg30
g31
sg32
I4
sg33
g47
sg35
F5
sg36
(lp175
sg38
F0
sg39
(lp176
sg41
F0.90000000000000002
sg42
F0
sbsS'LeftHand_Effector'
p177
(iSimulator.ysPhysConfig
Node
p178
(dp179
g16
(lp180
sg18
g19
sg20
F-inf
sg21
g177
sg22
Finf
sg23
F1000
sg24
I5
sg25
F0.10000000000000001
sg26
Finf
sg27
Nsg28
Nsg29
I100
sg30
g31
sg32
I4
sg33
g47
sg35
F0
sg36
(lp181
sg38
F0
sg39
(lp182
sg41
F0.90000000000000002
sg42
F0
sbsS'RightShoulder'
p183
(iSimulator.ysPhysConfig
Node
p184
(dp185
g16
(lp186
sg18
g19
sg20
F-inf
sg21
g183
sg22
Finf
sg23
F1000
sg24
I5
sg25
F0.10000000000000001
sg26
Finf
sg27
Nsg28
Nsg29
I100
sg30
g31
sg32
I4
sg33
g47
sg35
F0
sg36
(lp187
sg38
F0
sg39
(lp188
sg41
F0.90000000000000002
sg42
F0
sbssS'defaultDensity'
p189
F1000
sS'defaultJointLoStop'
p190
F-inf
sS'defaultJointAxes'
p191
g19
sS'defaultKd'
p192
I5
sb.